target datalayout = "e-m:e-p270:32:32-p271:32:32-p272:64:64-i64:64-i128:128-f80:128-n8:16:32:64-S128"
target triple = "x86_64-pc-linux-gnu"

%struct._fvalue_t = type { ptr, %union.anon.1 }
%union.anon.1 = type { %struct._protocol_value_t }
%struct._protocol_value_t = type { ptr, i32, ptr, i8 }

@.str.40 = private unnamed_addr constant [42 x i8] c"\22%s\22 too big for this field, maximum %lu.\00", align 1
@.str.41 = private unnamed_addr constant [37 x i8] c"Unsigned numbers cannot be negative.\00", align 1

; Function Attrs: null_pointer_is_valid sspstrong uwtable
define internal zeroext i1 @_uint64_from_sinteger64(ptr noundef %0, ptr noundef %1, i64 noundef %2, ptr noundef %3, i64 noundef %4) #0 {
  %6 = alloca i1, align 1
  %7 = alloca ptr, align 8
  %8 = alloca ptr, align 8
  %9 = alloca i64, align 8
  %10 = alloca ptr, align 8
  %11 = alloca i64, align 8
  %12 = alloca i64, align 8
  %13 = alloca i32, align 4
  store ptr %0, ptr %7, align 8
  store ptr %1, ptr %8, align 8
  store i64 %2, ptr %9, align 8
  store ptr %3, ptr %10, align 8
  store i64 %4, ptr %11, align 8
  %14 = load i64, ptr %9, align 8
  %15 = icmp slt i64 %14, 0
  br i1 %15, label %16, label %23

16:                                               ; preds = %5
  %17 = load ptr, ptr %10, align 8
  %18 = icmp ne ptr %17, null
  br i1 %18, label %19, label %22

19:                                               ; preds = %16
  %20 = call noalias ptr (ptr, ptr, ...) @wmem_strdup_printf(ptr noundef null, ptr noundef @.str.41)
  %21 = load ptr, ptr %10, align 8
  store ptr %20, ptr %21, align 8
  br label %22

22:                                               ; preds = %19, %16
  store i1 false, ptr %6, align 1
  br label %42

23:                                               ; preds = %5
  call void @llvm.lifetime.start.p0(i64 8, ptr %12) #10
  %24 = load i64, ptr %9, align 8
  store i64 %24, ptr %12, align 8
  %25 = load i64, ptr %12, align 8
  %26 = load i64, ptr %11, align 8
  %27 = icmp ugt i64 %25, %26
  br i1 %27, label %28, label %37

28:                                               ; preds = %23
  %29 = load ptr, ptr %10, align 8
  %30 = icmp ne ptr %29, null
  br i1 %30, label %31, label %36

31:                                               ; preds = %28
  %32 = load ptr, ptr %8, align 8
  %33 = load i64, ptr %11, align 8
  %34 = call noalias ptr (ptr, ptr, ...) @wmem_strdup_printf(ptr noundef null, ptr noundef @.str.40, ptr noundef %32, i64 noundef %33)
  %35 = load ptr, ptr %10, align 8
  store ptr %34, ptr %35, align 8
  br label %36

36:                                               ; preds = %31, %28
  store i1 false, ptr %6, align 1
  store i32 1, ptr %13, align 4
  br label %41

37:                                               ; preds = %23
  %38 = load i64, ptr %12, align 8
  %39 = load ptr, ptr %7, align 8
  %40 = getelementptr inbounds nuw %struct._fvalue_t, ptr %39, i32 0, i32 1
  store i64 %38, ptr %40, align 8
  store i1 true, ptr %6, align 1
  store i32 1, ptr %13, align 4
  br label %41

41:                                               ; preds = %37, %36
  call void @llvm.lifetime.end.p0(i64 8, ptr %12) #10
  br label %42

42:                                               ; preds = %41, %22
  %43 = load i1, ptr %6, align 1
  ret i1 %43
}

; Function Attrs: null_pointer_is_valid sspstrong uwtable
define internal zeroext i1 @uint64_from_sinteger64(ptr noundef %0, ptr noundef %1, i64 noundef %2, ptr noundef %3) #0 {
  %5 = alloca ptr, align 8
  %6 = alloca ptr, align 8
  %7 = alloca i64, align 8
  %8 = alloca ptr, align 8
  store ptr %0, ptr %5, align 8
  store ptr %1, ptr %6, align 8
  store i64 %2, ptr %7, align 8
  store ptr %3, ptr %8, align 8
  %9 = load ptr, ptr %5, align 8
  %10 = load ptr, ptr %6, align 8
  %11 = load i64, ptr %7, align 8
  %12 = load ptr, ptr %8, align 8
  %13 = call zeroext i1 @_uint64_from_sinteger64(ptr noundef %9, ptr noundef %10, i64 noundef %11, ptr noundef %12, i64 noundef -1)
  ret i1 %13
}